target datalayout = "e-m:e-p270:32:32-p271:32:32-p272:64:64-i64:64-i128:128-f80:128-n8:16:32:64-S128"
target triple = "x86_64-pc-linux-gnu"

%class.GraphKit = type <{ ptr, %class.Phase, ptr, ptr, ptr, ptr, i32, [4 x i8], ptr, ptr, i32, [4 x i8] }>
%class.Phase = type { i32, ptr }
%class.IdealKit = type { ptr, ptr, ptr, ptr, i32, i8, ptr, ptr, ptr }
%class.Type = type <{ ptr, ptr, i32, [4 x i8] }>
%class.TypeLong = type { %class.TypeInteger.base, i64, i64 }
%class.TypeInteger.base = type { %class.Type.base, i16 }
%class.Type.base = type <{ ptr, ptr, i32 }>
%class.ciMetadata = type { %class.ciBaseObject.base, ptr }
%class.ciBaseObject.base = type <{ ptr, i32 }>

@_ZN23java_lang_ref_Reference16_referent_offsetE = external global i32, align 4
@_ZN5ciEnv16_Reference_klassE = external global ptr, align 8
@_ZN5ciEnv13_Object_klassE = external global ptr, align 8

; Function Attrs: mustprogress nounwind uwtable
define linkonce_odr hidden void @_ZN8IdealKit4stopEv(ptr noundef nonnull align 8 dereferenceable(64) %0) #1 comdat align 2 {
  %2 = alloca ptr, align 8
  store ptr %0, ptr %2, align 8
  %3 = load ptr, ptr %2, align 8
  %4 = getelementptr inbounds %class.IdealKit, ptr %3, i32 0, i32 3
  %5 = load ptr, ptr %4, align 8
  call void @_ZN8IdealKit5clearEP4Node(ptr noundef nonnull align 8 dereferenceable(64) %3, ptr noundef %5)
  ret void
}

; Function Attrs: mustprogress nounwind uwtable
define linkonce_odr hidden noundef nonnull align 8 dereferenceable(2400) ptr @_ZNK8IdealKit3gvnEv(ptr noundef nonnull align 8 dereferenceable(64) %0) #1 comdat align 2 {
  %2 = alloca ptr, align 8
  store ptr %0, ptr %2, align 8
  %3 = load ptr, ptr %2, align 8
  %4 = getelementptr inbounds %class.IdealKit, ptr %3, i32 0, i32 1
  %5 = load ptr, ptr %4, align 8
  ret ptr %5
}

; Function Attrs: mustprogress nounwind uwtable
define linkonce_odr hidden noundef ptr @_ZN10ciMetadata17as_instance_klassEv(ptr noundef nonnull align 8 dereferenceable(24) %0) #1 comdat align 2 {
  %2 = alloca ptr, align 8
  store ptr %0, ptr %2, align 8
  %3 = load ptr, ptr %2, align 8
  ret ptr %3
}

; Function Attrs: mustprogress nounwind uwtable
define linkonce_odr hidden void @_ZN8IdealKitD2Ev(ptr noundef nonnull align 8 dereferenceable(64) %0) unnamed_addr #1 comdat align 2 {
  %2 = alloca ptr, align 8
  store ptr %0, ptr %2, align 8
  %3 = load ptr, ptr %2, align 8
  call void @_ZN8IdealKit4stopEv(ptr noundef nonnull align 8 dereferenceable(64) %3)
  ret void
}

; Function Attrs: mustprogress nounwind uwtable
define linkonce_odr hidden noundef ptr @_ZN8IdealKit4ConIEi(ptr noundef nonnull align 8 dereferenceable(64) %0, i32 noundef %1) #1 comdat align 2 {
  %3 = alloca ptr, align 8
  %4 = alloca i32, align 4
  store ptr %0, ptr %3, align 8
  store i32 %1, ptr %4, align 4
  %5 = load ptr, ptr %3, align 8
  %6 = call noundef nonnull align 8 dereferenceable(2400) ptr @_ZNK8IdealKit3gvnEv(ptr noundef nonnull align 8 dereferenceable(64) %5)
  %7 = load i32, ptr %4, align 4
  %8 = call noundef ptr @_ZN11PhaseValues6intconEi(ptr noundef nonnull align 8 dereferenceable(2400) %6, i32 noundef %7)
  ret ptr %8
}

; Function Attrs: mustprogress nounwind uwtable
define linkonce_odr hidden noundef ptr @_ZNK8GraphKit7makeconEPK4Type(ptr noundef nonnull align 8 dereferenceable(84) %0, ptr noundef %1) #1 comdat align 2 {
  %3 = alloca ptr, align 8
  %4 = alloca ptr, align 8
  store ptr %0, ptr %3, align 8
  store ptr %1, ptr %4, align 8
  %5 = load ptr, ptr %3, align 8
  %6 = getelementptr inbounds %class.GraphKit, ptr %5, i32 0, i32 3
  %7 = load ptr, ptr %6, align 8
  %8 = load ptr, ptr %4, align 8
  %9 = call noundef ptr @_ZN11PhaseValues7makeconEPK4Type(ptr noundef nonnull align 8 dereferenceable(2400) %7, ptr noundef %8)
  ret ptr %9
}

; Function Attrs: mustprogress nounwind uwtable
define linkonce_odr hidden noundef ptr @_ZN8IdealKit4ConXEi(ptr noundef nonnull align 8 dereferenceable(64) %0, i32 noundef %1) #1 comdat align 2 {
  %3 = alloca ptr, align 8
  %4 = alloca i32, align 4
  store ptr %0, ptr %3, align 8
  store i32 %1, ptr %4, align 4
  %5 = load ptr, ptr %3, align 8
  %6 = call noundef nonnull align 8 dereferenceable(2400) ptr @_ZNK8IdealKit3gvnEv(ptr noundef nonnull align 8 dereferenceable(64) %5)
  %7 = load i32, ptr %4, align 4
  %8 = sext i32 %7 to i64
  %9 = call noundef ptr @_ZN11PhaseValues7longconEl(ptr noundef nonnull align 8 dereferenceable(2400) %6, i64 noundef %8)
  ret ptr %9
}

; Function Attrs: mustprogress nounwind uwtable
define linkonce_odr hidden noundef ptr @_ZN5ciEnv12Object_klassEv(ptr noundef nonnull align 8 dereferenceable(1265) %0) #1 comdat align 2 {
  %2 = alloca ptr, align 8
  store ptr %0, ptr %2, align 8
  %3 = load ptr, ptr @_ZN5ciEnv13_Object_klassE, align 8
  ret ptr %3
}

; Function Attrs: mustprogress nounwind uwtable
define linkonce_odr hidden noundef ptr @_ZN5ciEnv15Reference_klassEv(ptr noundef nonnull align 8 dereferenceable(1265) %0) #1 comdat align 2 {
  %2 = alloca ptr, align 8
  store ptr %0, ptr %2, align 8
  %3 = load ptr, ptr @_ZN5ciEnv16_Reference_klassE, align 8
  ret ptr %3
}

; Function Attrs: mustprogress nounwind uwtable
define linkonce_odr hidden noundef ptr @_ZNK8GraphKit3envEv(ptr noundef nonnull align 8 dereferenceable(84) %0) #1 comdat align 2 {
  %2 = alloca ptr, align 8
  store ptr %0, ptr %2, align 8
  %3 = load ptr, ptr %2, align 8
  %4 = getelementptr inbounds %class.GraphKit, ptr %3, i32 0, i32 2
  %5 = load ptr, ptr %4, align 8
  ret ptr %5
}

; Function Attrs: mustprogress nounwind uwtable
define linkonce_odr hidden noundef zeroext i1 @_ZNK10ciMetadata9is_loadedEv(ptr noundef nonnull align 8 dereferenceable(24) %0) #1 comdat align 2 {
  %2 = alloca ptr, align 8
  store ptr %0, ptr %2, align 8
  %3 = load ptr, ptr %2, align 8
  %4 = getelementptr inbounds %class.ciMetadata, ptr %3, i32 0, i32 1
  %5 = load ptr, ptr %4, align 8
  %6 = icmp ne ptr %5, null
  br i1 %6, label %12, label %7

7:                                                ; preds = %1
  %8 = load ptr, ptr %3, align 8
  %9 = getelementptr inbounds ptr, ptr %8, i64 4
  %10 = load ptr, ptr %9, align 8
  %11 = call noundef zeroext i1 %10(ptr noundef nonnull align 8 dereferenceable(24) %3)
  br label %12

12:                                               ; preds = %7, %1
  %13 = phi i1 [ true, %1 ], [ %11, %7 ]
  ret i1 %13
}

; Function Attrs: mustprogress nounwind uwtable
define linkonce_odr hidden noundef ptr @_ZNK11TypeInstPtr14instance_klassEv(ptr noundef nonnull align 8 dereferenceable(80) %0) #1 comdat align 2 {
  %2 = alloca ptr, align 8
  store ptr %0, ptr %2, align 8
  %3 = load ptr, ptr %2, align 8
  %4 = load ptr, ptr %3, align 8
  %5 = getelementptr inbounds ptr, ptr %4, i64 29
  %6 = load ptr, ptr %5, align 8
  %7 = call noundef ptr %6(ptr noundef nonnull align 8 dereferenceable(80) %3)
  %8 = call noundef ptr @_ZN10ciMetadata17as_instance_klassEv(ptr noundef nonnull align 8 dereferenceable(24) %7)
  ret ptr %8
}

; Function Attrs: mustprogress nounwind uwtable
define linkonce_odr hidden noundef ptr @_ZNK4Type11isa_instptrEv(ptr noundef nonnull align 8 dereferenceable(20) %0) #1 comdat align 2 {
  %2 = alloca ptr, align 8
  store ptr %0, ptr %2, align 8
  %3 = load ptr, ptr %2, align 8
  %4 = getelementptr inbounds %class.Type, ptr %3, i32 0, i32 2
  %5 = load i32, ptr %4, align 8
  %6 = icmp eq i32 %5, 21
  br i1 %6, label %7, label %8

7:                                                ; preds = %1
  br label %9

8:                                                ; preds = %1
  br label %9

9:                                                ; preds = %8, %7
  %10 = phi ptr [ %3, %7 ], [ null, %8 ]
  ret ptr %10
}

; Function Attrs: mustprogress nounwind uwtable
define linkonce_odr hidden noundef ptr @_ZNK4Type10isa_aryptrEv(ptr noundef nonnull align 8 dereferenceable(20) %0) #1 comdat align 2 {
  %2 = alloca ptr, align 8
  store ptr %0, ptr %2, align 8
  %3 = load ptr, ptr %2, align 8
  %4 = getelementptr inbounds %class.Type, ptr %3, i32 0, i32 2
  %5 = load i32, ptr %4, align 8
  %6 = icmp eq i32 %5, 22
  br i1 %6, label %7, label %8

7:                                                ; preds = %1
  br label %9

8:                                                ; preds = %1
  br label %9

9:                                                ; preds = %8, %7
  %10 = phi ptr [ %3, %7 ], [ null, %8 ]
  ret ptr %10
}

; Function Attrs: mustprogress nounwind uwtable
define linkonce_odr hidden noundef ptr @_ZNK4Type10isa_oopptrEv(ptr noundef nonnull align 8 dereferenceable(20) %0) #1 comdat align 2 {
  %2 = alloca ptr, align 8
  store ptr %0, ptr %2, align 8
  %3 = load ptr, ptr %2, align 8
  %4 = getelementptr inbounds %class.Type, ptr %3, i32 0, i32 2
  %5 = load i32, ptr %4, align 8
  %6 = icmp sge i32 %5, 20
  br i1 %6, label %7, label %12

7:                                                ; preds = %1
  %8 = getelementptr inbounds %class.Type, ptr %3, i32 0, i32 2
  %9 = load i32, ptr %8, align 8
  %10 = icmp sle i32 %9, 22
  br i1 %10, label %11, label %12

11:                                               ; preds = %7
  br label %13

12:                                               ; preds = %7, %1
  br label %13

13:                                               ; preds = %12, %11
  %14 = phi ptr [ %3, %11 ], [ null, %12 ]
  ret ptr %14
}

; Function Attrs: mustprogress nounwind uwtable
define linkonce_odr hidden noundef i32 @_ZN23java_lang_ref_Reference15referent_offsetEv() #1 comdat align 2 {
  %1 = load i32, ptr @_ZN23java_lang_ref_Reference16_referent_offsetE, align 4
  ret i32 %1
}

; Function Attrs: mustprogress nounwind uwtable
define linkonce_odr hidden noundef i64 @_ZNK8TypeLong7get_conEv(ptr noundef nonnull align 8 dereferenceable(40) %0) #1 comdat align 2 {
  %2 = alloca ptr, align 8
  store ptr %0, ptr %2, align 8
  %3 = load ptr, ptr %2, align 8
  %4 = getelementptr inbounds %class.TypeLong, ptr %3, i32 0, i32 1
  %5 = load i64, ptr %4, align 8
  ret i64 %5
}

; Function Attrs: mustprogress nounwind uwtable
define linkonce_odr hidden noundef zeroext i1 @_ZNK8TypeLong6is_conEv(ptr noundef nonnull align 8 dereferenceable(40) %0) #1 comdat align 2 {
  %2 = alloca ptr, align 8
  store ptr %0, ptr %2, align 8
  %3 = load ptr, ptr %2, align 8
  %4 = getelementptr inbounds %class.TypeLong, ptr %3, i32 0, i32 1
  %5 = load i64, ptr %4, align 8
  %6 = getelementptr inbounds %class.TypeLong, ptr %3, i32 0, i32 2
  %7 = load i64, ptr %6, align 8
  %8 = icmp eq i64 %5, %7
  ret i1 %8
}

; Function Attrs: mustprogress nounwind uwtable
define hidden void @_ZNK22ShenandoahBarrierSetC218insert_pre_barrierEP8GraphKitP4NodeS3_S3_b(ptr noundef nonnull align 8 dereferenceable(8) %0, ptr noundef %1, ptr noundef %2, ptr noundef %3, ptr noundef %4, i1 noundef zeroext %5) #1 align 2 {
  %7 = alloca ptr, align 8
  %8 = alloca ptr, align 8
  %9 = alloca ptr, align 8
  %10 = alloca ptr, align 8
  %11 = alloca ptr, align 8
  %12 = alloca i8, align 1
  %13 = alloca ptr, align 8
  %14 = alloca ptr, align 8
  %15 = alloca ptr, align 8
  %16 = alloca ptr, align 8
  %17 = alloca float, align 4
  %18 = alloca float, align 4
  %19 = alloca %class.IdealKit, align 8
  %20 = alloca ptr, align 8
  %21 = alloca ptr, align 8
  %22 = alloca ptr, align 8
  %23 = alloca ptr, align 8
  store ptr %0, ptr %7, align 8
  store ptr %1, ptr %8, align 8
  store ptr %2, ptr %9, align 8
  store ptr %3, ptr %10, align 8
  store ptr %4, ptr %11, align 8
  %24 = zext i1 %5 to i8
  store i8 %24, ptr %12, align 1
  %25 = load ptr, ptr %7, align 8
  %26 = load ptr, ptr %10, align 8
  %27 = call noundef ptr @_ZNK4Node14find_long_typeEv(ptr noundef nonnull align 8 dereferenceable(52) %26)
  store ptr %27, ptr %13, align 8
  %28 = load ptr, ptr %13, align 8
  %29 = icmp ne ptr %28, null
  br i1 %29, label %30, label %40

30:                                               ; preds = %6
  %31 = load ptr, ptr %13, align 8
  %32 = call noundef zeroext i1 @_ZNK8TypeLong6is_conEv(ptr noundef nonnull align 8 dereferenceable(40) %31)
  br i1 %32, label %33, label %40

33:                                               ; preds = %30
  %34 = load ptr, ptr %13, align 8
  %35 = call noundef i64 @_ZNK8TypeLong7get_conEv(ptr noundef nonnull align 8 dereferenceable(40) %34)
  %36 = call noundef i32 @_ZN23java_lang_ref_Reference15referent_offsetEv()
  %37 = sext i32 %36 to i64
  %38 = icmp ne i64 %35, %37
  br i1 %38, label %39, label %40

39:                                               ; preds = %33
  br label %113

40:                                               ; preds = %33, %30, %6
  %41 = load ptr, ptr %9, align 8
  %42 = load ptr, ptr %41, align 8
  %43 = getelementptr inbounds ptr, ptr %42, i64 5
  %44 = load ptr, ptr %43, align 8
  %45 = call noundef ptr %44(ptr noundef nonnull align 8 dereferenceable(52) %41)
  %46 = call noundef ptr @_ZNK4Type10isa_oopptrEv(ptr noundef nonnull align 8 dereferenceable(20) %45)
  store ptr %46, ptr %14, align 8
  %47 = load ptr, ptr %14, align 8
  %48 = icmp ne ptr %47, null
  br i1 %48, label %49, label %79

49:                                               ; preds = %40
  %50 = load ptr, ptr %14, align 8
  %51 = call noundef ptr @_ZNK4Type10isa_aryptrEv(ptr noundef nonnull align 8 dereferenceable(20) %50)
  %52 = icmp ne ptr %51, null
  br i1 %52, label %53, label %54

53:                                               ; preds = %49
  br label %113

54:                                               ; preds = %49
  %55 = load ptr, ptr %14, align 8
  %56 = call noundef ptr @_ZNK4Type11isa_instptrEv(ptr noundef nonnull align 8 dereferenceable(20) %55)
  store ptr %56, ptr %15, align 8
  %57 = load ptr, ptr %15, align 8
  %58 = icmp ne ptr %57, null
  br i1 %58, label %59, label %78

59:                                               ; preds = %54
  %60 = load ptr, ptr %15, align 8
  %61 = call noundef ptr @_ZNK11TypeInstPtr14instance_klassEv(ptr noundef nonnull align 8 dereferenceable(80) %60)
  store ptr %61, ptr %16, align 8
  %62 = load ptr, ptr %16, align 8
  %63 = call noundef zeroext i1 @_ZNK10ciMetadata9is_loadedEv(ptr noundef nonnull align 8 dereferenceable(24) %62)
  br i1 %63, label %64, label %77

64:                                               ; preds = %59
  %65 = load ptr, ptr %16, align 8
  %66 = load ptr, ptr %8, align 8
  %67 = call noundef ptr @_ZNK8GraphKit3envEv(ptr noundef nonnull align 8 dereferenceable(84) %66)
  %68 = call noundef ptr @_ZN5ciEnv15Reference_klassEv(ptr noundef nonnull align 8 dereferenceable(1265) %67)
  %69 = call noundef zeroext i1 @_ZN7ciKlass13is_subtype_ofEPS_(ptr noundef nonnull align 8 dereferenceable(44) %65, ptr noundef %68)
  br i1 %69, label %77, label %70

70:                                               ; preds = %64
  %71 = load ptr, ptr %8, align 8
  %72 = call noundef ptr @_ZNK8GraphKit3envEv(ptr noundef nonnull align 8 dereferenceable(84) %71)
  %73 = call noundef ptr @_ZN5ciEnv12Object_klassEv(ptr noundef nonnull align 8 dereferenceable(1265) %72)
  %74 = load ptr, ptr %16, align 8
  %75 = call noundef zeroext i1 @_ZN7ciKlass13is_subtype_ofEPS_(ptr noundef nonnull align 8 dereferenceable(44) %73, ptr noundef %74)
  br i1 %75, label %77, label %76

76:                                               ; preds = %70
  br label %113

77:                                               ; preds = %70, %64, %59
  br label %78

78:                                               ; preds = %77, %54
  br label %79

79:                                               ; preds = %78, %40
  store float 0x3FEFF7CEE0000000, ptr %17, align 4
  store float 0x3F50624000000000, ptr %18, align 4
  %80 = load ptr, ptr %8, align 8
  call void @_ZN8IdealKitC1EP8GraphKitbb(ptr noundef nonnull align 8 dereferenceable(64) %19, ptr noundef %80, i1 noundef zeroext false, i1 noundef zeroext false)
  %81 = call noundef i32 @_ZN23java_lang_ref_Reference15referent_offsetEv()
  %82 = call noundef ptr @_ZN8IdealKit4ConXEi(ptr noundef nonnull align 8 dereferenceable(64) %19, i32 noundef %81)
  store ptr %82, ptr %20, align 8
  %83 = load ptr, ptr %10, align 8
  %84 = load ptr, ptr %20, align 8
  %85 = load float, ptr %18, align 4
  call void @_ZN8IdealKit7if_thenEP4NodeN8BoolTest4maskES1_ffb(ptr noundef nonnull align 8 dereferenceable(64) %19, ptr noundef %83, i32 noundef 0, ptr noundef %84, float noundef %85, float noundef -1.000000e+00, i1 noundef zeroext true)
  %86 = load ptr, ptr %8, align 8
  call void @_ZN8GraphKit8sync_kitER8IdealKit(ptr noundef nonnull align 8 dereferenceable(84) %86, ptr noundef nonnull align 8 dereferenceable(64) %19)
  %87 = load ptr, ptr %8, align 8
  %88 = load ptr, ptr %8, align 8
  %89 = call noundef ptr @_ZNK8GraphKit3envEv(ptr noundef nonnull align 8 dereferenceable(84) %88)
  %90 = call noundef ptr @_ZN5ciEnv15Reference_klassEv(ptr noundef nonnull align 8 dereferenceable(1265) %89)
  %91 = call noundef ptr @_ZN12TypeKlassPtr4makeEP7ciKlassN4Type17InterfaceHandlingE(ptr noundef %90, i32 noundef 1)
  %92 = call noundef ptr @_ZNK8GraphKit7makeconEPK4Type(ptr noundef nonnull align 8 dereferenceable(84) %87, ptr noundef %91)
  store ptr %92, ptr %21, align 8
  %93 = load ptr, ptr %8, align 8
  %94 = load ptr, ptr %9, align 8
  %95 = load ptr, ptr %21, align 8
  %96 = call noundef ptr @_ZN8GraphKit14gen_instanceofEP4NodeS1_b(ptr noundef nonnull align 8 dereferenceable(84) %93, ptr noundef %94, ptr noundef %95, i1 noundef zeroext false)
  store ptr %96, ptr %22, align 8
  %97 = load ptr, ptr %8, align 8
  call void @_ZN8IdealKit8sync_kitEP8GraphKit(ptr noundef nonnull align 8 dereferenceable(64) %19, ptr noundef %97)
  %98 = call noundef ptr @_ZN8IdealKit4ConIEi(ptr noundef nonnull align 8 dereferenceable(64) %19, i32 noundef 1)
  store ptr %98, ptr %23, align 8
  %99 = load ptr, ptr %22, align 8
  %100 = load ptr, ptr %23, align 8
  %101 = load float, ptr %18, align 4
  call void @_ZN8IdealKit7if_thenEP4NodeN8BoolTest4maskES1_ffb(ptr noundef nonnull align 8 dereferenceable(64) %19, ptr noundef %99, i32 noundef 0, ptr noundef %100, float noundef %101, float noundef -1.000000e+00, i1 noundef zeroext true)
  %102 = load ptr, ptr %8, align 8
  call void @_ZN8GraphKit8sync_kitER8IdealKit(ptr noundef nonnull align 8 dereferenceable(84) %102, ptr noundef nonnull align 8 dereferenceable(64) %19)
  %103 = load ptr, ptr %8, align 8
  %104 = load ptr, ptr %11, align 8
  call void @_ZNK22ShenandoahBarrierSetC222satb_write_barrier_preEP8GraphKitbP4NodeS3_jS3_PK10TypeOopPtrS3_9BasicType(ptr noundef nonnull align 8 dereferenceable(8) %25, ptr noundef %103, i1 noundef zeroext false, ptr noundef null, ptr noundef null, i32 noundef -1, ptr noundef null, ptr noundef null, ptr noundef %104, i8 noundef zeroext 12)
  %105 = load i8, ptr %12, align 1
  %106 = trunc i8 %105 to i1
  br i1 %106, label %107, label %110

107:                                              ; preds = %79
  %108 = load ptr, ptr %8, align 8
  %109 = call noundef ptr @_ZN8GraphKit14insert_mem_barEiP4Node(ptr noundef nonnull align 8 dereferenceable(84) %108, i32 noundef 216, ptr noundef null)
  br label %110

110:                                              ; preds = %107, %79
  %111 = load ptr, ptr %8, align 8
  call void @_ZN8IdealKit8sync_kitEP8GraphKit(ptr noundef nonnull align 8 dereferenceable(64) %19, ptr noundef %111)
  call void @_ZN8IdealKit6end_ifEv(ptr noundef nonnull align 8 dereferenceable(64) %19)
  call void @_ZN8IdealKit6end_ifEv(ptr noundef nonnull align 8 dereferenceable(64) %19)
  %112 = load ptr, ptr %8, align 8
  call void @_ZN8GraphKit10final_syncER8IdealKit(ptr noundef nonnull align 8 dereferenceable(84) %112, ptr noundef nonnull align 8 dereferenceable(64) %19)
  call void @_ZN8IdealKitD2Ev(ptr noundef nonnull align 8 dereferenceable(64) %19) #9
  br label %113

113:                                              ; preds = %110, %76, %53, %39
  ret void
}