; Function Attrs: mustprogress nounwind uwtable
define hidden void @_ZNK22ShenandoahBarrierSetC218insert_pre_barrierEP8GraphKitP4NodeS3_S3_b(ptr nocapture noundef nonnull readnone align 8 dereferenceable(8) %0, ptr noundef %1, ptr noundef %2, ptr noundef nonnull %3, ptr noundef %4, i1 noundef zeroext %5) local_unnamed_addr #1 align 2 {
  %7 = alloca %class.IdealKit, align 8
  %8 = tail call noundef ptr @_ZNK4Node14find_long_typeEv(ptr noundef nonnull align 8 dereferenceable(52) %3) #14
  %.not = icmp eq ptr %8, null
  br i1 %.not, label %17, label %9

9:                                                ; preds = %6
  %10 = getelementptr inbounds i8, ptr %8, i64 24
  %11 = load i64, ptr %10, align 8
  %12 = getelementptr inbounds i8, ptr %8, i64 32
  %13 = load i64, ptr %12, align 8
  %14 = icmp ne i64 %11, %13
  %15 = load i32, ptr @_ZN23java_lang_ref_Reference16_referent_offsetE, align 4
  %16 = sext i32 %15 to i64
  %.not38 = icmp eq i64 %11, %16
  %or.cond = select i1 %14, i1 true, i1 %.not38
  br i1 %or.cond, label %17, label %61

17:                                               ; preds = %9, %6
  %18 = load ptr, ptr %2, align 8
  %19 = getelementptr inbounds i8, ptr %18, i64 40
  %20 = load ptr, ptr %19, align 8
  %21 = tail call noundef ptr %20(ptr noundef nonnull align 8 dereferenceable(52) %2) #14
  %22 = getelementptr inbounds i8, ptr %21, i64 16
  %23 = load i32, ptr %22, align 8
  %24 = add i32 %23, -23
  %or.cond.i = icmp ult i32 %24, -3
  %.not3944 = icmp eq ptr %21, null
  %.not39 = or i1 %.not3944, %or.cond.i
  br i1 %.not39, label %42, label %25

25:                                               ; preds = %17
  switch i32 %23, label %42 [
    i32 22, label %61
    i32 21, label %26
  ]

26:                                               ; preds = %25
  %27 = load ptr, ptr %21, align 8
  %28 = getelementptr inbounds i8, ptr %27, i64 232
  %29 = load ptr, ptr %28, align 8
  %30 = tail call noundef ptr %29(ptr noundef nonnull align 8 dereferenceable(80) %21) #14
  %31 = getelementptr inbounds i8, ptr %30, i64 16
  %32 = load ptr, ptr %31, align 8
  %.not.i = icmp eq ptr %32, null
  br i1 %.not.i, label %_ZNK10ciMetadata9is_loadedEv.exit, label %_ZNK10ciMetadata9is_loadedEv.exit.thread

_ZNK10ciMetadata9is_loadedEv.exit:                ; preds = %26
  %33 = load ptr, ptr %30, align 8
  %34 = getelementptr inbounds i8, ptr %33, i64 32
  %35 = load ptr, ptr %34, align 8
  %36 = tail call noundef zeroext i1 %35(ptr noundef nonnull align 8 dereferenceable(24) %30) #14
  br i1 %36, label %_ZNK10ciMetadata9is_loadedEv.exit.thread, label %42

_ZNK10ciMetadata9is_loadedEv.exit.thread:         ; preds = %26, %_ZNK10ciMetadata9is_loadedEv.exit
  %37 = load ptr, ptr @_ZN5ciEnv16_Reference_klassE, align 8
  %38 = tail call noundef zeroext i1 @_ZN7ciKlass13is_subtype_ofEPS_(ptr noundef nonnull align 8 dereferenceable(44) %30, ptr noundef %37) #14
  br i1 %38, label %42, label %39

39:                                               ; preds = %_ZNK10ciMetadata9is_loadedEv.exit.thread
  %40 = load ptr, ptr @_ZN5ciEnv13_Object_klassE, align 8
  %41 = tail call noundef zeroext i1 @_ZN7ciKlass13is_subtype_ofEPS_(ptr noundef nonnull align 8 dereferenceable(44) %40, ptr noundef nonnull %30) #14
  br i1 %41, label %42, label %61

42:                                               ; preds = %25, %39, %_ZNK10ciMetadata9is_loadedEv.exit.thread, %_ZNK10ciMetadata9is_loadedEv.exit, %17
  call void @_ZN8IdealKitC1EP8GraphKitbb(ptr noundef nonnull align 8 dereferenceable(64) %7, ptr noundef %1, i1 noundef zeroext false, i1 noundef zeroext false) #14
  %43 = load i32, ptr @_ZN23java_lang_ref_Reference16_referent_offsetE, align 4
  %44 = getelementptr inbounds i8, ptr %7, i64 8
  %45 = load ptr, ptr %44, align 8
  %46 = sext i32 %43 to i64
  %47 = call noundef ptr @_ZN11PhaseValues7longconEl(ptr noundef nonnull align 8 dereferenceable(2400) %45, i64 noundef %46) #14
  call void @_ZN8IdealKit7if_thenEP4NodeN8BoolTest4maskES1_ffb(ptr noundef nonnull align 8 dereferenceable(64) %7, ptr noundef nonnull %3, i32 noundef 0, ptr noundef %47, float noundef 0x3F50624000000000, float noundef -1.000000e+00, i1 noundef zeroext true) #14
  call void @_ZN8GraphKit8sync_kitER8IdealKit(ptr noundef nonnull align 8 dereferenceable(84) %1, ptr noundef nonnull align 8 dereferenceable(64) %7) #14
  %48 = load ptr, ptr @_ZN5ciEnv16_Reference_klassE, align 8
  %49 = call noundef ptr @_ZN12TypeKlassPtr4makeEP7ciKlassN4Type17InterfaceHandlingE(ptr noundef %48, i32 noundef 1) #14
  %50 = getelementptr inbounds i8, ptr %1, i64 32
  %51 = load ptr, ptr %50, align 8
  %52 = call noundef ptr @_ZN11PhaseValues7makeconEPK4Type(ptr noundef nonnull align 8 dereferenceable(2400) %51, ptr noundef %49) #14
  %53 = call noundef ptr @_ZN8GraphKit14gen_instanceofEP4NodeS1_b(ptr noundef nonnull align 8 dereferenceable(84) %1, ptr noundef nonnull %2, ptr noundef %52, i1 noundef zeroext false) #14
  call void @_ZN8IdealKit8sync_kitEP8GraphKit(ptr noundef nonnull align 8 dereferenceable(64) %7, ptr noundef nonnull %1) #14
  %54 = load ptr, ptr %44, align 8
  %55 = call noundef ptr @_ZN11PhaseValues6intconEi(ptr noundef nonnull align 8 dereferenceable(2400) %54, i32 noundef 1) #14
  call void @_ZN8IdealKit7if_thenEP4NodeN8BoolTest4maskES1_ffb(ptr noundef nonnull align 8 dereferenceable(64) %7, ptr noundef %53, i32 noundef 0, ptr noundef %55, float noundef 0x3F50624000000000, float noundef -1.000000e+00, i1 noundef zeroext true) #14
  call void @_ZN8GraphKit8sync_kitER8IdealKit(ptr noundef nonnull align 8 dereferenceable(84) %1, ptr noundef nonnull align 8 dereferenceable(64) %7) #14
  call void @_ZNK22ShenandoahBarrierSetC222satb_write_barrier_preEP8GraphKitbP4NodeS3_jS3_PK10TypeOopPtrS3_9BasicType(ptr nonnull align 8 poison, ptr noundef nonnull %1, i1 noundef zeroext false, ptr poison, ptr noundef null, i32 noundef -1, ptr poison, ptr noundef null, ptr noundef %4, i8 noundef zeroext 12)
  br i1 %5, label %56, label %58

56:                                               ; preds = %42
  %57 = call noundef ptr @_ZN8GraphKit14insert_mem_barEiP4Node(ptr noundef nonnull align 8 dereferenceable(84) %1, i32 noundef 216, ptr noundef null) #14
  br label %58

58:                                               ; preds = %56, %42
  call void @_ZN8IdealKit8sync_kitEP8GraphKit(ptr noundef nonnull align 8 dereferenceable(64) %7, ptr noundef nonnull %1) #14
  call void @_ZN8IdealKit6end_ifEv(ptr noundef nonnull align 8 dereferenceable(64) %7) #14
  call void @_ZN8IdealKit6end_ifEv(ptr noundef nonnull align 8 dereferenceable(64) %7) #14
  call void @_ZN8GraphKit10final_syncER8IdealKit(ptr noundef nonnull align 8 dereferenceable(84) %1, ptr noundef nonnull align 8 dereferenceable(64) %7) #14
  %59 = getelementptr inbounds i8, ptr %7, i64 24
  %60 = load ptr, ptr %59, align 8
  call void @_ZN8IdealKit5clearEP4Node(ptr noundef nonnull align 8 dereferenceable(64) %7, ptr noundef %60) #14
  br label %61

61:                                               ; preds = %25, %9, %39, %58
  ret void
}